(dp0
Vsg_bundle_data
p1
(dp2
Vtype
p3
VCustomNonProjectEntity07
p4
sVid
p5
I81
sVsg_system_name
p6
Vtk-config-default2
p7
sVsg_status_list
p8
Vhidden
p9
sVsg_deprecation_message
p10
NssVsg_version_data
p11
(dp12
Vtype
p13
VCustomNonProjectEntity08
p14
sVid
p15
I2986
sVcode
p16
Vv1.6.0
p17
sVsg_status_list
p18
Vprod
p19
sVdescription
p20
V[No wiki release notes found]
p21
sVtags
p22
(lp23
sVsg_detailed_release_notes
p24
(dp25
Vurl
p26
Vhttps://community.shotgridsoftware.com/t/shotgrid-integration-1-6-release-notes/17759
p27
sVname
p28
Vv1.6.0
p29
sVcontent_type
p30
NsVlink_type
p31
Vweb
p32
sg13
VAttachment
p33
sg15
I30582
ssVsg_documentation
p34
NsVsg_payload
p35
(dp36
g26
Vhttps://s3-proxy.shotgunstudio.com/d18c13bf0e59a9a82f18be518a1b6b508bcbd774/4d2863bea08a0d0bf41c715991952db6a5b0df0e/tk-config-default2_v1.6.0.zip?response-content-disposition=filename%3D%22tk-config-default2_v1.6.0.zip%22&x-amz-meta-user-id=42&x-amz-meta-user-type=ApiUser&X-Amz-Algorithm=AWS4-HMAC-SHA256&X-Amz-Credential=ASIAYJG6Z4JIQ5C42LCZ%2F20240124%2Fus-west-2%2Fs3%2Faws4_request&X-Amz-Date=20240124T223944Z&X-Amz-SignedHeaders=host&X-Amz-Expires=900&X-Amz-Security-Token=IQoJb3JpZ2luX2VjEMf%2F%2F%2F%2F%2F%2F%2F%2F%2F%2FwEaCXVzLWVhc3QtMSJGMEQCID%2FiXg3KeqLD%2Bz%2BYHzozsbhNiWwKBu1KYkOPOe7WHf0FAiAKjCRZej6ZGfflsKpEdJ8DIha%2BhzwmV1NlgtMyHl%2B9qCqhAgiA%2F%2F%2F%2F%2F%2F%2F%2F%2F%2F8BEAAaDDU2OTU1MDQzMDgwMSIMteCa5brUP9eChWGMKvUBvIYL11f3sAypniffJGiRDfY1GMDqYXkjacxJmNsGPv6M%2B1t4B%2FscUF4Dis2nP1uydWjhOec17binzvaXH80sMFmbSbziZXvBp0nF2mvHsKitJ806D4h403M7iaGAMBRsdbu0PJk0F1sHHSPpD8nZE8DRhOhr%2FYuj03HxKVhb4Kg0UMKfKjc6%2FI6OKPH8D%2BH%2BT3YnHmO7wX%2BlJLDvoGZ8J6Rxt%2FTcIMK2bgmdYls%2FT45DZaOjbyy8LihSQ%2BTmZ6mScS%2BvZHCKqS0VS0b5u3AQV9Ey0BQagk4Msnj0HQvr6l%2BN7LmhCH4fdaNudsOzUldFezfNzaAwi5vGrQY6ngEKv0jlZrtqqbUIiWDH2PPAXEZtAnQegFWrnM3vJz929F%2FkNf%2F0JlFvBRM53jKwFXHdU6TVNslBpNjwd6sS2Mnu2bN3iR9Qm%2BUIWwsDrp9wbyEJmgS1YuuR6wzYgCyJeI12KLc9t8Z%2B1HnMwoGzc1L5FVlZBmQsuu5FRHqwwMiWeO7JAeMUGokfzK8c2RYxfsgzOMBRUqXd9KOfzAy20g%3D%3D&X-Amz-Signature=dae1d35adb69f414ee908176ef028c95a5d833af2aa8c7bc9e96351ddf037b16
p37
sg28
Vtk-config-default2_v1.6.0.zip
p38
sg30
Vapplication/zip
p39
sg31
Vupload
p40
sg13
VAttachment
p41
sg15
I30576
sss.